; Function Attrs: nounwind uwtable
define dso_local void @addReplyBulkCBuffer(ptr noundef %0, ptr noundef readonly captures(none) %1, i64 noundef %2) local_unnamed_addr #0 {
  %4 = alloca [128 x i8], align 16
  %5 = getelementptr inbounds nuw i8, ptr %0, i64 8
  %6 = load i64, ptr %5, align 8, !tbaa !86
  %7 = and i64 %6, 134217984
  %.not.i = icmp eq i64 %7, 0
  br i1 %.not.i, label %8, label %49, !prof !5

8:                                                ; preds = %3
  %9 = and i64 %6, 1024
  %.not11.i = icmp eq i64 %9, 0
  br i1 %.not11.i, label %10, label %_prepareClientToWrite.exit, !prof !5

10:                                               ; preds = %8
  %11 = and i64 %6, 20971520
  %12 = icmp ne i64 %11, 0
  %13 = and i64 %6, 70368744177664
  %.not12.i = icmp eq i64 %13, 0
  %14 = and i1 %12, %.not12.i
  %15 = and i64 %6, 8194
  %16 = icmp eq i64 %15, 2
  %or.cond.i = or i1 %16, %14
  br i1 %or.cond.i, label %_prepareClientToWrite.exit, label %17, !prof !120

17:                                               ; preds = %10
  %18 = getelementptr inbounds nuw i8, ptr %0, i64 16
  %19 = load ptr, ptr %18, align 8, !tbaa !75
  %.not14.i = icmp eq ptr %19, null
  br i1 %.not14.i, label %_prepareClientToWrite.exit, label %20, !prof !121

20:                                               ; preds = %17
  %21 = and i64 %6, 5
  %.not.i.i = icmp eq i64 %21, 1
  br i1 %.not.i.i, label %22, label %25, !prof !121

22:                                               ; preds = %20
  %23 = tail call fastcc i32 @_clientHasPendingRepliesSlave(ptr noundef nonnull readonly %0)
  %24 = icmp eq i32 %23, 0
  br i1 %24, label %32, label %49

25:                                               ; preds = %20
  %26 = getelementptr inbounds nuw i8, ptr %0, i64 776
  %27 = load i32, ptr %26, align 8, !tbaa !76
  %.not.i.i.i = icmp eq i32 %27, 0
  br i1 %.not.i.i.i, label %clientHasPendingReplies.exit.i, label %49

clientHasPendingReplies.exit.i:                   ; preds = %25
  %28 = getelementptr inbounds nuw i8, ptr %0, i64 184
  %29 = load ptr, ptr %28, align 8, !tbaa !96
  %30 = getelementptr inbounds nuw i8, ptr %29, i64 40
  %31 = load i64, ptr %30, align 8, !tbaa !122
  %.not20.i = icmp eq i64 %31, 0
  br i1 %.not20.i, label %32, label %49

32:                                               ; preds = %clientHasPendingReplies.exit.i, %22
  %33 = getelementptr inbounds nuw i8, ptr %0, i64 25
  %34 = load i8, ptr %33, align 1, !tbaa !73
  %35 = icmp eq i8 %34, 0
  br i1 %35, label %36, label %49, !prof !5

36:                                               ; preds = %32
  %37 = load i64, ptr %5, align 8, !tbaa !86
  %38 = and i64 %37, 2097152
  %.not.i17.i = icmp eq i64 %38, 0
  br i1 %.not.i17.i, label %39, label %49

39:                                               ; preds = %36
  %40 = getelementptr inbounds nuw i8, ptr %0, i64 268
  %41 = load i32, ptr %40, align 4, !tbaa !94
  switch i32 %41, label %49 [
    i32 0, label %45
    i32 12, label %45
    i32 9, label %42
  ]

42:                                               ; preds = %39
  %43 = getelementptr inbounds nuw i8, ptr %0, i64 272
  %44 = load i32, ptr %43, align 8, !tbaa !95
  %.not7.i.i = icmp eq i32 %44, 0
  br i1 %.not7.i.i, label %45, label %49

45:                                               ; preds = %42, %39, %39
  %46 = or disjoint i64 %37, 2097152
  store i64 %46, ptr %5, align 8, !tbaa !86
  %47 = load ptr, ptr getelementptr inbounds nuw (i8, ptr @server, i64 1448), align 8, !tbaa !119
  %48 = getelementptr inbounds nuw i8, ptr %0, i64 736
  tail call void @listLinkNodeHead(ptr noundef %47, ptr noundef nonnull %48) #26
  br label %49

49:                                               ; preds = %3, %32, %clientHasPendingReplies.exit.i, %36, %39, %42, %45, %25, %22
  call void @llvm.lifetime.start.p0(i64 128, ptr nonnull %4) #26
  %50 = icmp ult i64 %2, 32
  br i1 %50, label %51, label %58

51:                                               ; preds = %49
  %52 = getelementptr inbounds nuw ptr, ptr getelementptr inbounds nuw (i8, ptr @shared, i64 81136), i64 %2
  %53 = load ptr, ptr %52, align 8, !tbaa !147
  %54 = getelementptr inbounds nuw i8, ptr %53, i64 8
  %55 = load ptr, ptr %54, align 8, !tbaa !6
  %56 = icmp samesign ult i64 %2, 10
  %57 = select i1 %56, i64 4, i64 5
  tail call void @_addReplyToBufferOrList(ptr noundef nonnull %0, ptr noundef %55, i64 noundef %57)
  br label %_addReplyLongLongBulk.exit

58:                                               ; preds = %49
  store i8 36, ptr %4, align 16, !tbaa !12
  %59 = getelementptr inbounds nuw i8, ptr %4, i64 1
  %60 = call i32 @ll2string(ptr noundef nonnull %59, i64 noundef 127, i64 noundef %2) #26
  %61 = add nsw i32 %60, 1
  %62 = sext i32 %61 to i64
  %63 = getelementptr inbounds [128 x i8], ptr %4, i64 0, i64 %62
  store i8 13, ptr %63, align 1, !tbaa !12
  %64 = add nsw i32 %60, 2
  %65 = sext i32 %64 to i64
  %66 = getelementptr inbounds [128 x i8], ptr %4, i64 0, i64 %65
  store i8 10, ptr %66, align 1, !tbaa !12
  %67 = add nsw i32 %60, 3
  %68 = sext i32 %67 to i64
  call void @_addReplyToBufferOrList(ptr noundef nonnull %0, ptr noundef nonnull %4, i64 noundef %68)
  br label %_addReplyLongLongBulk.exit

_addReplyLongLongBulk.exit:                       ; preds = %51, %58
  call void @llvm.lifetime.end.p0(i64 128, ptr nonnull %4) #26
  call void @_addReplyToBufferOrList(ptr noundef nonnull %0, ptr noundef %1, i64 noundef %2)
  call void @_addReplyToBufferOrList(ptr noundef nonnull %0, ptr noundef nonnull @.str.6, i64 noundef 2)
  br label %_prepareClientToWrite.exit

_prepareClientToWrite.exit:                       ; preds = %17, %10, %8, %_addReplyLongLongBulk.exit
  ret void
}